target datalayout = "e-m:e-p270:32:32-p271:32:32-p272:64:64-i64:64-i128:128-f80:128-n8:16:32:64-S128"
target triple = "x86_64-pc-linux-gnu"

%struct.opj_jp2 = type { ptr, ptr, ptr, i32, i32, i32, i32, i32, i32, i32, i32, i32, i32, i32, i32, i32, i32, ptr, ptr, i64, i64, i32, i32, i32, %struct.opj_jp2_color, i32, i8, i8 }
%struct.opj_jp2_color = type { ptr, i32, ptr, ptr, i8 }

@.str = private unnamed_addr constant [49 x i8] c"Failed to decode the codestream in the JP2 file\0A\00", align 1
@.str.10 = private unnamed_addr constant [75 x i8] c"JP2 box which are after the codestream will not be read by this function.\0A\00", align 1

; Function Attrs: nounwind uwtable
define hidden i32 @opj_jp2_get_tile(ptr noundef %0, ptr noundef %1, ptr noundef %2, ptr noundef %3, i32 noundef %4) #0 {
  %6 = alloca i32, align 4
  %7 = alloca ptr, align 8
  %8 = alloca ptr, align 8
  %9 = alloca ptr, align 8
  %10 = alloca ptr, align 8
  %11 = alloca i32, align 4
  store ptr %0, ptr %7, align 8, !tbaa !3
  store ptr %1, ptr %8, align 8, !tbaa !8
  store ptr %2, ptr %9, align 8, !tbaa !10
  store ptr %3, ptr %10, align 8, !tbaa !12
  store i32 %4, ptr %11, align 4, !tbaa !39
  %12 = load ptr, ptr %9, align 8, !tbaa !10
  %13 = icmp ne ptr %12, null
  br i1 %13, label %15, label %14

14:                                               ; preds = %5
  store i32 0, ptr %6, align 4
  br label %35

15:                                               ; preds = %5
  %16 = load ptr, ptr %10, align 8, !tbaa !12
  %17 = call i32 (ptr, i32, ptr, ...) @opj_event_msg(ptr noundef %16, i32 noundef 2, ptr noundef @.str.10)
  %18 = load ptr, ptr %7, align 8, !tbaa !3
  %19 = getelementptr inbounds nuw %struct.opj_jp2, ptr %18, i32 0, i32 0
  %20 = load ptr, ptr %19, align 8, !tbaa !14
  %21 = load ptr, ptr %8, align 8, !tbaa !8
  %22 = load ptr, ptr %9, align 8, !tbaa !10
  %23 = load ptr, ptr %10, align 8, !tbaa !12
  %24 = load i32, ptr %11, align 4, !tbaa !39
  %25 = call i32 @opj_j2k_get_tile(ptr noundef %20, ptr noundef %21, ptr noundef %22, ptr noundef %23, i32 noundef %24)
  %26 = icmp ne i32 %25, 0
  br i1 %26, label %30, label %27

27:                                               ; preds = %15
  %28 = load ptr, ptr %10, align 8, !tbaa !12
  %29 = call i32 (ptr, i32, ptr, ...) @opj_event_msg(ptr noundef %28, i32 noundef 1, ptr noundef @.str)
  store i32 0, ptr %6, align 4
  br label %35

30:                                               ; preds = %15
  %31 = load ptr, ptr %7, align 8, !tbaa !3
  %32 = load ptr, ptr %9, align 8, !tbaa !10
  %33 = load ptr, ptr %10, align 8, !tbaa !12
  %34 = call i32 @opj_jp2_apply_color_postprocessing(ptr noundef %31, ptr noundef %32, ptr noundef %33)
  store i32 %34, ptr %6, align 4
  br label %35

35:                                               ; preds = %30, %27, %14
  %36 = load i32, ptr %6, align 4
  ret i32 %36
}