; Function Attrs: nounwind uwtable
define hidden range(i32 0, 2) i32 @opj_jp2_get_tile(ptr noundef captures(none) %0, ptr noundef %1, ptr noundef %2, ptr noundef %3, i32 noundef %4) local_unnamed_addr #0 {
  %.not = icmp eq ptr %2, null
  br i1 %.not, label %14, label %6

6:                                                ; preds = %5
  %7 = tail call i32 (ptr, i32, ptr, ...) @opj_event_msg(ptr noundef %3, i32 noundef 2, ptr noundef nonnull @.str.10) #6
  %8 = load ptr, ptr %0, align 8, !tbaa !3
  %9 = tail call i32 @opj_j2k_get_tile(ptr noundef %8, ptr noundef %1, ptr noundef nonnull %2, ptr noundef %3, i32 noundef %4) #6
  %.not12 = icmp eq i32 %9, 0
  br i1 %.not12, label %10, label %12

10:                                               ; preds = %6
  %11 = tail call i32 (ptr, i32, ptr, ...) @opj_event_msg(ptr noundef %3, i32 noundef 1, ptr noundef nonnull @.str) #6
  br label %14

12:                                               ; preds = %6
  %13 = tail call fastcc i32 @opj_jp2_apply_color_postprocessing(ptr noundef nonnull %0, ptr noundef %2, ptr noundef %3)
  br label %14

14:                                               ; preds = %5, %12, %10
  %.0 = phi i32 [ %13, %12 ], [ 0, %10 ], [ 0, %5 ]
  ret i32 %.0
}